; Function Attrs: nofree norecurse nosync nounwind memory(argmem: readwrite) uwtable
define internal fastcc void @unquantize_intra_differences_float(ptr noundef nonnull writeonly captures(none) %0, i32 noundef %1, i32 noundef range(i32 1, 2147483647) %2, float noundef %3, ptr noundef readonly captures(none) %4) unnamed_addr #6 {
  %invariant.op = mul i32 %1, 3
  %6 = icmp sgt i32 %1, 1
  %wide.trip.count58 = zext nneg i32 %2 to i64
  br i1 %6, label %.preheader.us.preheader, label %.preheader

.preheader.us.preheader:                          ; preds = %5
  %wide.trip.count49 = zext nneg i32 %1 to i64
  br label %.preheader.us

.preheader.us:                                    ; preds = %.preheader.us.preheader, %.split.us.us
  %indvars.iv55 = phi i64 [ 0, %.preheader.us.preheader ], [ %indvars.iv.next56, %.split.us.us ]
  %7 = trunc nuw nsw i64 %indvars.iv55 to i32
  %.reass.us = mul i32 %invariant.op, %7
  %8 = trunc i64 %indvars.iv55 to i32
  %9 = mul i32 %1, %8
  %10 = sext i32 %.reass.us to i64
  br label %.lr.ph.us.us

.lr.ph.us.us:                                     ; preds = %._crit_edge.us.us, %.preheader.us
  %indvars.iv51 = phi i64 [ %indvars.iv.next52, %._crit_edge.us.us ], [ 0, %.preheader.us ]
  %11 = add nsw i64 %indvars.iv51, %10
  %12 = getelementptr inbounds i32, ptr %4, i64 %11
  %13 = load i32, ptr %12, align 4, !tbaa !3
  %14 = sitofp i32 %13 to float
  %15 = fmul float %3, %14
  %16 = getelementptr inbounds float, ptr %0, i64 %11
  store float %15, ptr %16, align 4, !tbaa !29
  br label %17

17:                                               ; preds = %17, %.lr.ph.us.us
  %indvars.iv46 = phi i64 [ %indvars.iv.next47, %17 ], [ 1, %.lr.ph.us.us ]
  %.034.us.us = phi i32 [ %25, %17 ], [ %13, %.lr.ph.us.us ]
  %18 = trunc i64 %indvars.iv46 to i32
  %19 = add i32 %9, %18
  %20 = mul i32 %19, 3
  %21 = sext i32 %20 to i64
  %22 = add nsw i64 %indvars.iv51, %21
  %23 = getelementptr inbounds i32, ptr %4, i64 %22
  %24 = load i32, ptr %23, align 4, !tbaa !3
  %25 = add nsw i32 %24, %.034.us.us
  %26 = sitofp i32 %25 to float
  %27 = fmul float %3, %26
  %28 = getelementptr inbounds float, ptr %0, i64 %22
  store float %27, ptr %28, align 4, !tbaa !29
  %indvars.iv.next47 = add nuw nsw i64 %indvars.iv46, 1
  %exitcond50.not = icmp eq i64 %indvars.iv.next47, %wide.trip.count49
  br i1 %exitcond50.not, label %._crit_edge.us.us, label %17, !llvm.loop !51

._crit_edge.us.us:                                ; preds = %17
  %indvars.iv.next52 = add nuw nsw i64 %indvars.iv51, 1
  %exitcond54.not = icmp eq i64 %indvars.iv.next52, 3
  br i1 %exitcond54.not, label %.split.us.us, label %.lr.ph.us.us, !llvm.loop !52

.split.us.us:                                     ; preds = %._crit_edge.us.us
  %indvars.iv.next56 = add nuw nsw i64 %indvars.iv55, 1
  %exitcond59.not = icmp eq i64 %indvars.iv.next56, %wide.trip.count58
  br i1 %exitcond59.not, label %.split39.us, label %.preheader.us, !llvm.loop !53

.preheader:                                       ; preds = %5, %.split
  %indvars.iv42 = phi i64 [ %indvars.iv.next43, %.split ], [ 0, %5 ]
  %29 = trunc nuw nsw i64 %indvars.iv42 to i32
  %.reass = mul i32 %invariant.op, %29
  %30 = sext i32 %.reass to i64
  br label %31

31:                                               ; preds = %.preheader, %31
  %indvars.iv = phi i64 [ 0, %.preheader ], [ %indvars.iv.next, %31 ]
  %32 = add nsw i64 %indvars.iv, %30
  %33 = getelementptr inbounds i32, ptr %4, i64 %32
  %34 = load i32, ptr %33, align 4, !tbaa !3
  %35 = sitofp i32 %34 to float
  %36 = fmul float %3, %35
  %37 = getelementptr inbounds float, ptr %0, i64 %32
  store float %36, ptr %37, align 4, !tbaa !29
  %indvars.iv.next = add nuw nsw i64 %indvars.iv, 1
  %exitcond.not = icmp eq i64 %indvars.iv.next, 3
  br i1 %exitcond.not, label %.split, label %31, !llvm.loop !52

.split:                                           ; preds = %31
  %indvars.iv.next43 = add nuw nsw i64 %indvars.iv42, 1
  %exitcond45.not = icmp eq i64 %indvars.iv.next43, %wide.trip.count58
  br i1 %exitcond45.not, label %.split39.us, label %.preheader, !llvm.loop !53

.split39.us:                                      ; preds = %.split, %.split.us.us
  ret void
}